; Function Attrs: mustprogress nofree norecurse nosync nounwind willreturn memory(readwrite, inaccessiblemem: none) uwtable
define void @_ZN32pxrInternal_v0_24__pxrReserved__10PcpNodeRef11SetHasSpecsEb(ptr noundef nonnull readonly align 8 captures(none) dereferenceable(16) %0, i1 noundef zeroext %1) local_unnamed_addr #5 align 2 {
  %3 = zext i1 %1 to i8
  %4 = load ptr, ptr %0, align 8
  %5 = getelementptr inbounds nuw i8, ptr %4, i64 32
  %6 = getelementptr inbounds nuw i8, ptr %0, i64 8
  %7 = load i64, ptr %6, align 8
  %8 = load ptr, ptr %5, align 8
  %9 = getelementptr inbounds %"struct.pxrInternal_v0_24__pxrReserved__::PcpPrimIndex_Graph::_UnsharedData", ptr %8, i64 %7, i32 2
  %10 = load i8, ptr %9, align 2
  %11 = and i8 %10, -2
  %12 = or disjoint i8 %11, %3
  store i8 %12, ptr %9, align 2
  ret void
}